target datalayout = "e-m:e-p270:32:32-p271:32:32-p272:64:64-i64:64-i128:128-f80:128-n8:16:32:64-S128"
target triple = "x86_64-pc-linux-gnu"

%"class.icu_77::Package" = type <{ [64 x i8], [64 x i8], ptr, [1024 x i8], i32, i32, i8, i8, i8, i8, i32, i32, [4 x i8], ptr, i32, i32, [100000 x i8], [100000 x i8], i32, [4 x i8], ptr, ptr, i32, i32, i32, i8, [3 x i8] }>

@stderr = external global ptr, align 8
@.str.30 = private unnamed_addr constant [63 x i8] c"icupkg: syntax error (more than one '*') in item pattern \22%s\22\0A\00", align 1

; Function Attrs: mustprogress nounwind uwtable
define void @_ZN6icu_777Package9findItemsEPKc(ptr noundef nonnull align 8 dereferenceable(201237) %0, ptr noundef %1) #3 align 2 {
  %3 = alloca ptr, align 8
  %4 = alloca ptr, align 8
  %5 = alloca ptr, align 8
  %6 = alloca i32, align 4
  store ptr %0, ptr %3, align 8, !tbaa !26
  store ptr %1, ptr %4, align 8, !tbaa !3
  %7 = load ptr, ptr %3, align 8
  call void @llvm.lifetime.start.p0(i64 8, ptr %5) #13
  %8 = load ptr, ptr %4, align 8, !tbaa !3
  %9 = icmp eq ptr %8, null
  br i1 %9, label %15, label %10

10:                                               ; preds = %2
  %11 = load ptr, ptr %4, align 8, !tbaa !3
  %12 = load i8, ptr %11, align 1, !tbaa !32
  %13 = sext i8 %12 to i32
  %14 = icmp eq i32 %13, 0
  br i1 %14, label %15, label %17

15:                                               ; preds = %10, %2
  %16 = getelementptr inbounds nuw %"class.icu_77::Package", ptr %7, i32 0, i32 24
  store i32 -1, ptr %16, align 8, !tbaa !47
  store i32 1, ptr %6, align 4
  br label %70

17:                                               ; preds = %10
  %18 = load ptr, ptr %4, align 8, !tbaa !3
  %19 = getelementptr inbounds nuw %"class.icu_77::Package", ptr %7, i32 0, i32 20
  store ptr %18, ptr %19, align 8, !tbaa !44
  %20 = getelementptr inbounds nuw %"class.icu_77::Package", ptr %7, i32 0, i32 21
  store ptr null, ptr %20, align 8, !tbaa !43
  %21 = getelementptr inbounds nuw %"class.icu_77::Package", ptr %7, i32 0, i32 23
  store i32 0, ptr %21, align 4, !tbaa !45
  %22 = load ptr, ptr %4, align 8, !tbaa !3
  %23 = call noundef ptr @strchr(ptr noundef %22, i32 noundef 42) #15
  store ptr %23, ptr %5, align 8, !tbaa !3
  %24 = load ptr, ptr %5, align 8, !tbaa !3
  %25 = icmp eq ptr %24, null
  br i1 %25, label %26, label %31

26:                                               ; preds = %17
  %27 = load ptr, ptr %4, align 8, !tbaa !3
  %28 = call i64 @strlen(ptr noundef %27) #15
  %29 = trunc i64 %28 to i32
  %30 = getelementptr inbounds nuw %"class.icu_77::Package", ptr %7, i32 0, i32 22
  store i32 %29, ptr %30, align 8, !tbaa !46
  br label %56

31:                                               ; preds = %17
  %32 = load ptr, ptr %5, align 8, !tbaa !3
  %33 = load ptr, ptr %4, align 8, !tbaa !3
  %34 = ptrtoint ptr %32 to i64
  %35 = ptrtoint ptr %33 to i64
  %36 = sub i64 %34, %35
  %37 = trunc i64 %36 to i32
  %38 = getelementptr inbounds nuw %"class.icu_77::Package", ptr %7, i32 0, i32 22
  store i32 %37, ptr %38, align 8, !tbaa !46
  %39 = load ptr, ptr %5, align 8, !tbaa !3
  %40 = getelementptr inbounds i8, ptr %39, i64 1
  %41 = getelementptr inbounds nuw %"class.icu_77::Package", ptr %7, i32 0, i32 21
  store ptr %40, ptr %41, align 8, !tbaa !43
  %42 = getelementptr inbounds nuw %"class.icu_77::Package", ptr %7, i32 0, i32 21
  %43 = load ptr, ptr %42, align 8, !tbaa !43
  %44 = call i64 @strlen(ptr noundef %43) #15
  %45 = trunc i64 %44 to i32
  %46 = getelementptr inbounds nuw %"class.icu_77::Package", ptr %7, i32 0, i32 23
  store i32 %45, ptr %46, align 4, !tbaa !45
  %47 = getelementptr inbounds nuw %"class.icu_77::Package", ptr %7, i32 0, i32 21
  %48 = load ptr, ptr %47, align 8, !tbaa !43
  %49 = call noundef ptr @strchr(ptr noundef %48, i32 noundef 42) #15
  %50 = icmp ne ptr null, %49
  br i1 %50, label %51, label %55

51:                                               ; preds = %31
  %52 = load ptr, ptr @stderr, align 8, !tbaa !54
  %53 = load ptr, ptr %4, align 8, !tbaa !3
  %54 = call i32 (ptr, ptr, ...) @fprintf(ptr noundef %52, ptr noundef @.str.30, ptr noundef %53) #13
  call void @exit(i32 noundef 9) #14
  unreachable

55:                                               ; preds = %31
  br label %56

56:                                               ; preds = %55, %26
  %57 = getelementptr inbounds nuw %"class.icu_77::Package", ptr %7, i32 0, i32 22
  %58 = load i32, ptr %57, align 8, !tbaa !46
  %59 = icmp eq i32 %58, 0
  br i1 %59, label %60, label %62

60:                                               ; preds = %56
  %61 = getelementptr inbounds nuw %"class.icu_77::Package", ptr %7, i32 0, i32 24
  store i32 0, ptr %61, align 8, !tbaa !47
  br label %69

62:                                               ; preds = %56
  %63 = getelementptr inbounds nuw %"class.icu_77::Package", ptr %7, i32 0, i32 20
  %64 = load ptr, ptr %63, align 8, !tbaa !44
  %65 = getelementptr inbounds nuw %"class.icu_77::Package", ptr %7, i32 0, i32 22
  %66 = load i32, ptr %65, align 8, !tbaa !46
  %67 = call noundef i32 @_ZNK6icu_777Package8findItemEPKci(ptr noundef nonnull align 8 dereferenceable(201237) %7, ptr noundef %64, i32 noundef %66)
  %68 = getelementptr inbounds nuw %"class.icu_77::Package", ptr %7, i32 0, i32 24
  store i32 %67, ptr %68, align 8, !tbaa !47
  br label %69

69:                                               ; preds = %62, %60
  store i32 0, ptr %6, align 4
  br label %70

70:                                               ; preds = %69, %15
  call void @llvm.lifetime.end.p0(i64 8, ptr %5) #13
  %71 = load i32, ptr %6, align 4
  switch i32 %71, label %73 [
    i32 0, label %72
    i32 1, label %72
  ]

72:                                               ; preds = %70, %70
  ret void

73:                                               ; preds = %70
  unreachable
}