; Function Attrs: mustprogress nofree nounwind uwtable
define void @_ZN6icu_777Package9findItemsEPKc(ptr noundef nonnull align 8 captures(none) dereferenceable(201237) %0, ptr noundef %1) local_unnamed_addr #8 align 2 {
  %3 = icmp eq ptr %1, null
  br i1 %3, label %35, label %4

4:                                                ; preds = %2
  %5 = load i8, ptr %1, align 1, !tbaa !19
  %6 = icmp eq i8 %5, 0
  br i1 %6, label %35, label %7

7:                                                ; preds = %4
  %8 = getelementptr inbounds nuw i8, ptr %0, i64 201208
  store ptr %1, ptr %8, align 8, !tbaa !69
  %9 = getelementptr inbounds nuw i8, ptr %0, i64 201216
  store ptr null, ptr %9, align 8, !tbaa !70
  %10 = getelementptr inbounds nuw i8, ptr %0, i64 201228
  store i32 0, ptr %10, align 4, !tbaa !71
  %11 = tail call noundef ptr @strchr(ptr noundef nonnull dereferenceable(1) %1, i32 noundef 42) #24
  %12 = icmp eq ptr %11, null
  br i1 %12, label %13, label %17

13:                                               ; preds = %7
  %14 = tail call i64 @strlen(ptr noundef nonnull dereferenceable(1) %1) #24
  %15 = trunc i64 %14 to i32
  %16 = getelementptr inbounds nuw i8, ptr %0, i64 201224
  store i32 %15, ptr %16, align 8, !tbaa !72
  br label %30

17:                                               ; preds = %7
  %18 = ptrtoint ptr %11 to i64
  %19 = ptrtoint ptr %1 to i64
  %20 = sub i64 %18, %19
  %21 = trunc i64 %20 to i32
  %22 = getelementptr inbounds nuw i8, ptr %0, i64 201224
  store i32 %21, ptr %22, align 8, !tbaa !72
  %23 = getelementptr inbounds nuw i8, ptr %11, i64 1
  store ptr %23, ptr %9, align 8, !tbaa !70
  %24 = tail call i64 @strlen(ptr noundef nonnull dereferenceable(1) %23) #24
  %25 = trunc i64 %24 to i32
  store i32 %25, ptr %10, align 4, !tbaa !71
  %26 = tail call noundef ptr @strchr(ptr noundef nonnull dereferenceable(1) %23, i32 noundef 42) #24
  %.not = icmp eq ptr %26, null
  br i1 %.not, label %30, label %27

27:                                               ; preds = %17
  %28 = load ptr, ptr @stderr, align 8, !tbaa !36
  %29 = tail call i32 (ptr, ptr, ...) @fprintf(ptr noundef %28, ptr noundef nonnull @.str.30, ptr noundef nonnull %1) #25
  tail call void @exit(i32 noundef 9) #26
  unreachable

30:                                               ; preds = %17, %13
  %31 = phi i32 [ %21, %17 ], [ %15, %13 ]
  %32 = icmp eq i32 %31, 0
  br i1 %32, label %35, label %33

33:                                               ; preds = %30
  %34 = tail call noundef i32 @_ZNK6icu_777Package8findItemEPKci(ptr noundef nonnull align 8 dereferenceable(201237) %0, ptr noundef nonnull %1, i32 noundef %31)
  br label %35

35:                                               ; preds = %30, %2, %4, %33
  %.sink = phi i32 [ %34, %33 ], [ -1, %4 ], [ -1, %2 ], [ 0, %30 ]
  %36 = getelementptr inbounds nuw i8, ptr %0, i64 201232
  store i32 %.sink, ptr %36, align 8, !tbaa !27
  ret void
}